; Function Attrs: mustprogress uwtable
define void @_Z11do_pbc_mtop7PbcTypePA3_KfPK10gmx_mtop_tPA3_f(i32 noundef %0, ptr noundef %1, ptr noundef readonly captures(none) %2, ptr noundef %3) local_unnamed_addr #1 {
  %5 = alloca %"class.gmx::ArrayRef", align 8
  %6 = alloca %"class.gmx::ArrayRef", align 8
  %7 = getelementptr inbounds nuw i8, ptr %2, i64 176
  %8 = load i32, ptr %7, align 8, !tbaa !198
  %9 = sext i32 %8 to i64
  %.not.i = icmp eq ptr %3, null
  %10 = getelementptr inbounds nuw %"class.gmx::BasicVector.6", ptr %3, i64 %9
  %spec.select.i = select i1 %.not.i, ptr null, ptr %10
  store ptr %3, ptr %5, align 8
  %11 = getelementptr inbounds nuw i8, ptr %5, i64 8
  store ptr %spec.select.i, ptr %11, align 8
  call void @llvm.memset.p0.i64(ptr noundef nonnull align 8 dereferenceable(16) %6, i8 0, i64 16, i1 false)
  tail call fastcc void @_ZL15low_do_pbc_mtopP8_IO_FILE7PbcTypebPA3_KfS4_PK10gmx_mtop_tN3gmx8ArrayRefINS8_11BasicVectorIfEEEESC_b(ptr noundef null, i32 noundef %0, i1 noundef zeroext false, ptr noundef null, ptr noundef %1, ptr noundef %2, ptr noundef nonnull byval(%"class.gmx::ArrayRef") align 8 %5, ptr noundef nonnull byval(%"class.gmx::ArrayRef") align 8 %6, i1 noundef zeroext false)
  ret void
}